target datalayout = "e-m:e-p270:32:32-p271:32:32-p272:64:64-i64:64-i128:128-f80:128-n8:16:32:64-S128"
target triple = "x86_64-pc-linux-gnu"

%struct.smt_params_helper = type { ptr, %class.params_ref }
%class.params_ref = type { ptr }
%struct.dyn_ack_params = type { i32, i8, double, i32, i32, double }

@.str.6 = private unnamed_addr constant [4 x i8] c"smt\00", align 1
@.str.7 = private unnamed_addr constant [5 x i8] c"dack\00", align 1
@.str.8 = private unnamed_addr constant [8 x i8] c"dack.eq\00", align 1
@.str.9 = private unnamed_addr constant [12 x i8] c"dack.factor\00", align 1
@.str.10 = private unnamed_addr constant [15 x i8] c"dack.threshold\00", align 1
@.str.11 = private unnamed_addr constant [8 x i8] c"dack.gc\00", align 1
@.str.12 = private unnamed_addr constant [18 x i8] c"dack.gc_inv_decay\00", align 1

; Function Attrs: inlinehint mustprogress nounwind uwtable
define linkonce_odr hidden void @_ZN17smt_params_helperD2Ev(ptr noundef nonnull align 8 dereferenceable(16) %0) unnamed_addr #6 comdat align 2 {
  %2 = alloca ptr, align 8
  store ptr %0, ptr %2, align 8, !tbaa !21
  %3 = load ptr, ptr %2, align 8
  %4 = getelementptr inbounds nuw %struct.smt_params_helper, ptr %3, i32 0, i32 1
  call void @_ZN10params_refD1Ev(ptr noundef nonnull align 8 dereferenceable(8) %4) #3
  ret void
}

; Function Attrs: mustprogress uwtable
define linkonce_odr hidden noundef double @_ZNK17smt_params_helper17dack_gc_inv_decayEv(ptr noundef nonnull align 8 dereferenceable(16) %0) #4 comdat align 2 {
  %2 = alloca ptr, align 8
  store ptr %0, ptr %2, align 8, !tbaa !21
  %3 = load ptr, ptr %2, align 8
  %4 = getelementptr inbounds nuw %struct.smt_params_helper, ptr %3, i32 0, i32 0
  %5 = load ptr, ptr %4, align 8, !tbaa !23
  %6 = getelementptr inbounds nuw %struct.smt_params_helper, ptr %3, i32 0, i32 1
  %7 = call noundef double @_ZNK10params_ref10get_doubleEPKcRKS_d(ptr noundef nonnull align 8 dereferenceable(8) %5, ptr noundef @.str.12, ptr noundef nonnull align 8 dereferenceable(8) %6, double noundef 8.000000e-01)
  ret double %7
}

; Function Attrs: mustprogress uwtable
define linkonce_odr hidden noundef i32 @_ZNK17smt_params_helper7dack_gcEv(ptr noundef nonnull align 8 dereferenceable(16) %0) #4 comdat align 2 {
  %2 = alloca ptr, align 8
  store ptr %0, ptr %2, align 8, !tbaa !21
  %3 = load ptr, ptr %2, align 8
  %4 = getelementptr inbounds nuw %struct.smt_params_helper, ptr %3, i32 0, i32 0
  %5 = load ptr, ptr %4, align 8, !tbaa !23
  %6 = getelementptr inbounds nuw %struct.smt_params_helper, ptr %3, i32 0, i32 1
  %7 = call noundef i32 @_ZNK10params_ref8get_uintEPKcRKS_j(ptr noundef nonnull align 8 dereferenceable(8) %5, ptr noundef @.str.11, ptr noundef nonnull align 8 dereferenceable(8) %6, i32 noundef 2000)
  ret i32 %7
}

; Function Attrs: mustprogress uwtable
define linkonce_odr hidden noundef i32 @_ZNK17smt_params_helper14dack_thresholdEv(ptr noundef nonnull align 8 dereferenceable(16) %0) #4 comdat align 2 {
  %2 = alloca ptr, align 8
  store ptr %0, ptr %2, align 8, !tbaa !21
  %3 = load ptr, ptr %2, align 8
  %4 = getelementptr inbounds nuw %struct.smt_params_helper, ptr %3, i32 0, i32 0
  %5 = load ptr, ptr %4, align 8, !tbaa !23
  %6 = getelementptr inbounds nuw %struct.smt_params_helper, ptr %3, i32 0, i32 1
  %7 = call noundef i32 @_ZNK10params_ref8get_uintEPKcRKS_j(ptr noundef nonnull align 8 dereferenceable(8) %5, ptr noundef @.str.10, ptr noundef nonnull align 8 dereferenceable(8) %6, i32 noundef 10)
  ret i32 %7
}

; Function Attrs: mustprogress uwtable
define linkonce_odr hidden noundef double @_ZNK17smt_params_helper11dack_factorEv(ptr noundef nonnull align 8 dereferenceable(16) %0) #4 comdat align 2 {
  %2 = alloca ptr, align 8
  store ptr %0, ptr %2, align 8, !tbaa !21
  %3 = load ptr, ptr %2, align 8
  %4 = getelementptr inbounds nuw %struct.smt_params_helper, ptr %3, i32 0, i32 0
  %5 = load ptr, ptr %4, align 8, !tbaa !23
  %6 = getelementptr inbounds nuw %struct.smt_params_helper, ptr %3, i32 0, i32 1
  %7 = call noundef double @_ZNK10params_ref10get_doubleEPKcRKS_d(ptr noundef nonnull align 8 dereferenceable(8) %5, ptr noundef @.str.9, ptr noundef nonnull align 8 dereferenceable(8) %6, double noundef 1.000000e-01)
  ret double %7
}

; Function Attrs: mustprogress uwtable
define linkonce_odr hidden noundef zeroext i1 @_ZNK17smt_params_helper7dack_eqEv(ptr noundef nonnull align 8 dereferenceable(16) %0) #4 comdat align 2 {
  %2 = alloca ptr, align 8
  store ptr %0, ptr %2, align 8, !tbaa !21
  %3 = load ptr, ptr %2, align 8
  %4 = getelementptr inbounds nuw %struct.smt_params_helper, ptr %3, i32 0, i32 0
  %5 = load ptr, ptr %4, align 8, !tbaa !23
  %6 = getelementptr inbounds nuw %struct.smt_params_helper, ptr %3, i32 0, i32 1
  %7 = call noundef zeroext i1 @_ZNK10params_ref8get_boolEPKcRKS_b(ptr noundef nonnull align 8 dereferenceable(8) %5, ptr noundef @.str.8, ptr noundef nonnull align 8 dereferenceable(8) %6, i1 noundef zeroext false)
  ret i1 %7
}

; Function Attrs: mustprogress uwtable
define linkonce_odr hidden noundef i32 @_ZNK17smt_params_helper4dackEv(ptr noundef nonnull align 8 dereferenceable(16) %0) #4 comdat align 2 {
  %2 = alloca ptr, align 8
  store ptr %0, ptr %2, align 8, !tbaa !21
  %3 = load ptr, ptr %2, align 8
  %4 = getelementptr inbounds nuw %struct.smt_params_helper, ptr %3, i32 0, i32 0
  %5 = load ptr, ptr %4, align 8, !tbaa !23
  %6 = getelementptr inbounds nuw %struct.smt_params_helper, ptr %3, i32 0, i32 1
  %7 = call noundef i32 @_ZNK10params_ref8get_uintEPKcRKS_j(ptr noundef nonnull align 8 dereferenceable(8) %5, ptr noundef @.str.7, ptr noundef nonnull align 8 dereferenceable(8) %6, i32 noundef 1)
  ret i32 %7
}

; Function Attrs: mustprogress uwtable
define linkonce_odr hidden void @_ZN17smt_params_helperC2ERK10params_ref(ptr noundef nonnull align 8 dereferenceable(16) %0, ptr noundef nonnull align 8 dereferenceable(8) %1) unnamed_addr #4 comdat align 2 {
  %3 = alloca ptr, align 8
  %4 = alloca ptr, align 8
  store ptr %0, ptr %3, align 8, !tbaa !21
  store ptr %1, ptr %4, align 8, !tbaa !8
  %5 = load ptr, ptr %3, align 8
  %6 = getelementptr inbounds nuw %struct.smt_params_helper, ptr %5, i32 0, i32 0
  %7 = load ptr, ptr %4, align 8, !tbaa !8
  store ptr %7, ptr %6, align 8, !tbaa !8
  %8 = getelementptr inbounds nuw %struct.smt_params_helper, ptr %5, i32 0, i32 1
  call void @_ZN7gparams10get_moduleEPKc(ptr dead_on_unwind writable sret(%class.params_ref) align 8 %8, ptr noundef @.str.6)
  ret void
}

; Function Attrs: mustprogress uwtable
define hidden void @_ZN14dyn_ack_params11updt_paramsERK10params_ref(ptr noundef nonnull align 8 dereferenceable(32) %0, ptr noundef nonnull align 8 dereferenceable(8) %1) #4 align 2 personality ptr @__gxx_personality_v0 {
  %3 = alloca ptr, align 8
  %4 = alloca ptr, align 8
  %5 = alloca %struct.smt_params_helper, align 8
  %6 = alloca ptr, align 8
  %7 = alloca i32, align 4
  store ptr %0, ptr %3, align 8, !tbaa !3
  store ptr %1, ptr %4, align 8, !tbaa !8
  %8 = load ptr, ptr %3, align 8
  call void @llvm.lifetime.start.p0(i64 16, ptr %5) #3
  %9 = load ptr, ptr %4, align 8, !tbaa !8
  call void @_ZN17smt_params_helperC2ERK10params_ref(ptr noundef nonnull align 8 dereferenceable(16) %5, ptr noundef nonnull align 8 dereferenceable(8) %9)
  %10 = invoke noundef i32 @_ZNK17smt_params_helper4dackEv(ptr noundef nonnull align 8 dereferenceable(16) %5)
          to label %11 unwind label %29

11:                                               ; preds = %2
  %12 = getelementptr inbounds nuw %struct.dyn_ack_params, ptr %8, i32 0, i32 0
  store i32 %10, ptr %12, align 8, !tbaa !10
  %13 = invoke noundef zeroext i1 @_ZNK17smt_params_helper7dack_eqEv(ptr noundef nonnull align 8 dereferenceable(16) %5)
          to label %14 unwind label %29

14:                                               ; preds = %11
  %15 = getelementptr inbounds nuw %struct.dyn_ack_params, ptr %8, i32 0, i32 1
  %16 = zext i1 %13 to i8
  store i8 %16, ptr %15, align 4, !tbaa !16
  %17 = invoke noundef double @_ZNK17smt_params_helper11dack_factorEv(ptr noundef nonnull align 8 dereferenceable(16) %5)
          to label %18 unwind label %29

18:                                               ; preds = %14
  %19 = getelementptr inbounds nuw %struct.dyn_ack_params, ptr %8, i32 0, i32 2
  store double %17, ptr %19, align 8, !tbaa !17
  %20 = invoke noundef i32 @_ZNK17smt_params_helper14dack_thresholdEv(ptr noundef nonnull align 8 dereferenceable(16) %5)
          to label %21 unwind label %29

21:                                               ; preds = %18
  %22 = getelementptr inbounds nuw %struct.dyn_ack_params, ptr %8, i32 0, i32 3
  store i32 %20, ptr %22, align 8, !tbaa !18
  %23 = invoke noundef i32 @_ZNK17smt_params_helper7dack_gcEv(ptr noundef nonnull align 8 dereferenceable(16) %5)
          to label %24 unwind label %29

24:                                               ; preds = %21
  %25 = getelementptr inbounds nuw %struct.dyn_ack_params, ptr %8, i32 0, i32 4
  store i32 %23, ptr %25, align 4, !tbaa !19
  %26 = invoke noundef double @_ZNK17smt_params_helper17dack_gc_inv_decayEv(ptr noundef nonnull align 8 dereferenceable(16) %5)
          to label %27 unwind label %29

27:                                               ; preds = %24
  %28 = getelementptr inbounds nuw %struct.dyn_ack_params, ptr %8, i32 0, i32 5
  store double %26, ptr %28, align 8, !tbaa !20
  call void @_ZN17smt_params_helperD2Ev(ptr noundef nonnull align 8 dereferenceable(16) %5) #3
  call void @llvm.lifetime.end.p0(i64 16, ptr %5) #3
  ret void

29:                                               ; preds = %24, %21, %18, %14, %11, %2
  %30 = landingpad { ptr, i32 }
          cleanup
  %31 = extractvalue { ptr, i32 } %30, 0
  store ptr %31, ptr %6, align 8
  %32 = extractvalue { ptr, i32 } %30, 1
  store i32 %32, ptr %7, align 4
  call void @_ZN17smt_params_helperD2Ev(ptr noundef nonnull align 8 dereferenceable(16) %5) #3
  call void @llvm.lifetime.end.p0(i64 16, ptr %5) #3
  br label %33

33:                                               ; preds = %29
  %34 = load ptr, ptr %6, align 8
  %35 = load i32, ptr %7, align 4
  %36 = insertvalue { ptr, i32 } poison, ptr %34, 0
  %37 = insertvalue { ptr, i32 } %36, i32 %35, 1
  resume { ptr, i32 } %37
}