; Function Attrs: mustprogress uwtable
define hidden void @_ZN14dyn_ack_params11updt_paramsERK10params_ref(ptr noundef nonnull writeonly align 8 captures(none) dereferenceable(32) %0, ptr noundef nonnull align 8 dereferenceable(8) %1) local_unnamed_addr #3 align 2 personality ptr @__gxx_personality_v0 {
  %3 = alloca %struct.smt_params_helper, align 8
  call void @llvm.lifetime.start.p0(i64 16, ptr nonnull %3) #6
  store ptr %1, ptr %3, align 8, !tbaa !3
  %4 = getelementptr inbounds nuw i8, ptr %3, i64 8
  call void @_ZN7gparams10get_moduleEPKc(ptr dead_on_unwind nonnull writable sret(%class.params_ref) align 8 %4, ptr noundef nonnull @.str.6)
  %5 = load ptr, ptr %3, align 8, !tbaa !8
  %6 = invoke noundef i32 @_ZNK10params_ref8get_uintEPKcRKS_j(ptr noundef nonnull align 8 dereferenceable(8) %5, ptr noundef nonnull @.str.7, ptr noundef nonnull align 8 dereferenceable(8) %4, i32 noundef 1)
          to label %_ZNK17smt_params_helper4dackEv.exit unwind label %23

_ZNK17smt_params_helper4dackEv.exit:              ; preds = %2
  store i32 %6, ptr %0, align 8, !tbaa !12
  %7 = load ptr, ptr %3, align 8, !tbaa !8
  %8 = invoke noundef zeroext i1 @_ZNK10params_ref8get_boolEPKcRKS_b(ptr noundef nonnull align 8 dereferenceable(8) %7, ptr noundef nonnull @.str.8, ptr noundef nonnull align 8 dereferenceable(8) %4, i1 noundef zeroext false)
          to label %_ZNK17smt_params_helper7dack_eqEv.exit unwind label %23

_ZNK17smt_params_helper7dack_eqEv.exit:           ; preds = %_ZNK17smt_params_helper4dackEv.exit
  %9 = getelementptr inbounds nuw i8, ptr %0, i64 4
  %10 = zext i1 %8 to i8
  store i8 %10, ptr %9, align 4, !tbaa !18
  %11 = load ptr, ptr %3, align 8, !tbaa !8
  %12 = invoke noundef double @_ZNK10params_ref10get_doubleEPKcRKS_d(ptr noundef nonnull align 8 dereferenceable(8) %11, ptr noundef nonnull @.str.9, ptr noundef nonnull align 8 dereferenceable(8) %4, double noundef 1.000000e-01)
          to label %_ZNK17smt_params_helper11dack_factorEv.exit unwind label %23

_ZNK17smt_params_helper11dack_factorEv.exit:      ; preds = %_ZNK17smt_params_helper7dack_eqEv.exit
  %13 = getelementptr inbounds nuw i8, ptr %0, i64 8
  store double %12, ptr %13, align 8, !tbaa !19
  %14 = load ptr, ptr %3, align 8, !tbaa !8
  %15 = invoke noundef i32 @_ZNK10params_ref8get_uintEPKcRKS_j(ptr noundef nonnull align 8 dereferenceable(8) %14, ptr noundef nonnull @.str.10, ptr noundef nonnull align 8 dereferenceable(8) %4, i32 noundef 10)
          to label %_ZNK17smt_params_helper14dack_thresholdEv.exit unwind label %23

_ZNK17smt_params_helper14dack_thresholdEv.exit:   ; preds = %_ZNK17smt_params_helper11dack_factorEv.exit
  %16 = getelementptr inbounds nuw i8, ptr %0, i64 16
  store i32 %15, ptr %16, align 8, !tbaa !20
  %17 = load ptr, ptr %3, align 8, !tbaa !8
  %18 = invoke noundef i32 @_ZNK10params_ref8get_uintEPKcRKS_j(ptr noundef nonnull align 8 dereferenceable(8) %17, ptr noundef nonnull @.str.11, ptr noundef nonnull align 8 dereferenceable(8) %4, i32 noundef 2000)
          to label %_ZNK17smt_params_helper7dack_gcEv.exit unwind label %23

_ZNK17smt_params_helper7dack_gcEv.exit:           ; preds = %_ZNK17smt_params_helper14dack_thresholdEv.exit
  %19 = getelementptr inbounds nuw i8, ptr %0, i64 20
  store i32 %18, ptr %19, align 4, !tbaa !21
  %20 = load ptr, ptr %3, align 8, !tbaa !8
  %21 = invoke noundef double @_ZNK10params_ref10get_doubleEPKcRKS_d(ptr noundef nonnull align 8 dereferenceable(8) %20, ptr noundef nonnull @.str.12, ptr noundef nonnull align 8 dereferenceable(8) %4, double noundef 8.000000e-01)
          to label %_ZNK17smt_params_helper17dack_gc_inv_decayEv.exit unwind label %23

_ZNK17smt_params_helper17dack_gc_inv_decayEv.exit: ; preds = %_ZNK17smt_params_helper7dack_gcEv.exit
  %22 = getelementptr inbounds nuw i8, ptr %0, i64 24
  store double %21, ptr %22, align 8, !tbaa !22
  call void @_ZN10params_refD1Ev(ptr noundef nonnull align 8 dereferenceable(8) %4) #6
  call void @llvm.lifetime.end.p0(i64 16, ptr nonnull %3) #6
  ret void

23:                                               ; preds = %_ZNK17smt_params_helper7dack_gcEv.exit, %_ZNK17smt_params_helper14dack_thresholdEv.exit, %_ZNK17smt_params_helper11dack_factorEv.exit, %_ZNK17smt_params_helper7dack_eqEv.exit, %_ZNK17smt_params_helper4dackEv.exit, %2
  %24 = landingpad { ptr, i32 }
          cleanup
  call void @_ZN10params_refD1Ev(ptr noundef nonnull align 8 dereferenceable(8) %4) #6
  call void @llvm.lifetime.end.p0(i64 16, ptr nonnull %3) #6
  resume { ptr, i32 } %24
}